; Function Attrs: mustprogress nounwind willreturn uwtable
define internal void @textfont_freef(ptr noundef captures(none) %0) #5 {
  %2 = load ptr, ptr %0, align 8, !tbaa !16
  tail call void @free(ptr noundef %2) #15
  %3 = getelementptr inbounds nuw i8, ptr %0, i64 8
  %4 = load ptr, ptr %3, align 8, !tbaa !58
  tail call void @free(ptr noundef %4) #15
  tail call void @free(ptr noundef %0) #15
  ret void
}